target datalayout = "e-m:e-p270:32:32-p271:32:32-p272:64:64-i64:64-i128:128-f80:128-n8:16:32:64-S128"
target triple = "x86_64-pc-linux-gnu"

@b1c4 = internal constant [4 x [2 x i16]] [[2 x i16] [i16 -14215, i16 8483], [2 x i16] [i16 -14213, i16 8484], [2 x i16] [i16 -14211, i16 8490], [2 x i16] [i16 -14174, i16 8530]], align 16
@b2c3 = internal constant [7 x [2 x i16]] [[2 x i16] [i16 -1578, i16 17207], [2 x i16] [i16 -1577, i16 20304], [2 x i16] [i16 -1576, i16 17486], [2 x i16] [i16 -1575, i16 20554], [2 x i16] [i16 -1574, i16 11357], [2 x i16] [i16 -1573, i16 15742], [2 x i16] [i16 -1572, i16 19292]], align 16

; Function Attrs: nounwind uwtable
define hidden zeroext i16 @BIG5toCNS(i16 noundef zeroext %0, ptr noundef %1) #0 {
  %3 = alloca i16, align 2
  %4 = alloca i16, align 2
  %5 = alloca ptr, align 8
  %6 = alloca i16, align 2
  %7 = alloca i32, align 4
  %8 = alloca i32, align 4
  store i16 %0, ptr %4, align 2
  store ptr %1, ptr %5, align 8
  call void @llvm.lifetime.start.p0(i64 2, ptr %6) #2
  store i16 0, ptr %6, align 2
  call void @llvm.lifetime.start.p0(i64 4, ptr %7) #2
  %9 = load i16, ptr %4, align 2
  %10 = zext i16 %9 to i32
  %11 = icmp ult i32 %10, 51520
  br i1 %11, label %12, label %49

12:                                               ; preds = %2
  store i32 0, ptr %7, align 4
  br label %13

13:                                               ; preds = %38, %12
  %14 = load i32, ptr %7, align 4
  %15 = sext i32 %14 to i64
  %16 = icmp ult i64 %15, 4
  br i1 %16, label %17, label %41

17:                                               ; preds = %13
  %18 = load i32, ptr %7, align 4
  %19 = sext i32 %18 to i64
  %20 = getelementptr inbounds [4 x [2 x i16]], ptr @b1c4, i64 0, i64 %19
  %21 = getelementptr inbounds [2 x i16], ptr %20, i64 0, i64 0
  %22 = load i16, ptr %21, align 4
  %23 = zext i16 %22 to i32
  %24 = load i16, ptr %4, align 2
  %25 = zext i16 %24 to i32
  %26 = icmp eq i32 %23, %25
  br i1 %26, label %27, label %37

27:                                               ; preds = %17
  %28 = load ptr, ptr %5, align 8
  store i8 -9, ptr %28, align 1
  %29 = load i32, ptr %7, align 4
  %30 = sext i32 %29 to i64
  %31 = getelementptr inbounds [4 x [2 x i16]], ptr @b1c4, i64 0, i64 %30
  %32 = getelementptr inbounds [2 x i16], ptr %31, i64 0, i64 1
  %33 = load i16, ptr %32, align 2
  %34 = zext i16 %33 to i32
  %35 = or i32 %34, 32896
  %36 = trunc i32 %35 to i16
  store i16 %36, ptr %3, align 2
  store i32 1, ptr %8, align 4
  br label %104

37:                                               ; preds = %17
  br label %38

38:                                               ; preds = %37
  %39 = load i32, ptr %7, align 4
  %40 = add i32 %39, 1
  store i32 %40, ptr %7, align 4
  br label %13, !llvm.loop !3

41:                                               ; preds = %13
  %42 = load i16, ptr %4, align 2
  %43 = call zeroext i16 @BinarySearchRange(ptr noundef @big5Level1ToCnsPlane1, i32 noundef 23, i16 noundef zeroext %42)
  store i16 %43, ptr %6, align 2
  %44 = zext i16 %43 to i32
  %45 = icmp slt i32 0, %44
  br i1 %45, label %46, label %48

46:                                               ; preds = %41
  %47 = load ptr, ptr %5, align 8
  store i8 -107, ptr %47, align 1
  br label %48

48:                                               ; preds = %46, %41
  br label %93

49:                                               ; preds = %2
  %50 = load i16, ptr %4, align 2
  %51 = zext i16 %50 to i32
  %52 = icmp eq i32 %51, 51530
  br i1 %52, label %53, label %55

53:                                               ; preds = %49
  %54 = load ptr, ptr %5, align 8
  store i8 -107, ptr %54, align 1
  store i16 17474, ptr %6, align 2
  br label %92

55:                                               ; preds = %49
  store i32 0, ptr %7, align 4
  br label %56

56:                                               ; preds = %81, %55
  %57 = load i32, ptr %7, align 4
  %58 = sext i32 %57 to i64
  %59 = icmp ult i64 %58, 7
  br i1 %59, label %60, label %84

60:                                               ; preds = %56
  %61 = load i32, ptr %7, align 4
  %62 = sext i32 %61 to i64
  %63 = getelementptr inbounds [7 x [2 x i16]], ptr @b2c3, i64 0, i64 %62
  %64 = getelementptr inbounds [2 x i16], ptr %63, i64 0, i64 0
  %65 = load i16, ptr %64, align 4
  %66 = zext i16 %65 to i32
  %67 = load i16, ptr %4, align 2
  %68 = zext i16 %67 to i32
  %69 = icmp eq i32 %66, %68
  br i1 %69, label %70, label %80

70:                                               ; preds = %60
  %71 = load ptr, ptr %5, align 8
  store i8 -10, ptr %71, align 1
  %72 = load i32, ptr %7, align 4
  %73 = sext i32 %72 to i64
  %74 = getelementptr inbounds [7 x [2 x i16]], ptr @b2c3, i64 0, i64 %73
  %75 = getelementptr inbounds [2 x i16], ptr %74, i64 0, i64 1
  %76 = load i16, ptr %75, align 2
  %77 = zext i16 %76 to i32
  %78 = or i32 %77, 32896
  %79 = trunc i32 %78 to i16
  store i16 %79, ptr %3, align 2
  store i32 1, ptr %8, align 4
  br label %104

80:                                               ; preds = %60
  br label %81

81:                                               ; preds = %80
  %82 = load i32, ptr %7, align 4
  %83 = add i32 %82, 1
  store i32 %83, ptr %7, align 4
  br label %56, !llvm.loop !5

84:                                               ; preds = %56
  %85 = load i16, ptr %4, align 2
  %86 = call zeroext i16 @BinarySearchRange(ptr noundef @big5Level2ToCnsPlane2, i32 noundef 46, i16 noundef zeroext %85)
  store i16 %86, ptr %6, align 2
  %87 = zext i16 %86 to i32
  %88 = icmp slt i32 0, %87
  br i1 %88, label %89, label %91

89:                                               ; preds = %84
  %90 = load ptr, ptr %5, align 8
  store i8 -106, ptr %90, align 1
  br label %91

91:                                               ; preds = %89, %84
  br label %92

92:                                               ; preds = %91, %53
  br label %93

93:                                               ; preds = %92, %48
  %94 = load i16, ptr %6, align 2
  %95 = zext i16 %94 to i32
  %96 = icmp eq i32 0, %95
  br i1 %96, label %97, label %99

97:                                               ; preds = %93
  %98 = load ptr, ptr %5, align 8
  store i8 0, ptr %98, align 1
  store i16 63, ptr %3, align 2
  store i32 1, ptr %8, align 4
  br label %104

99:                                               ; preds = %93
  %100 = load i16, ptr %6, align 2
  %101 = zext i16 %100 to i32
  %102 = or i32 %101, 32896
  %103 = trunc i32 %102 to i16
  store i16 %103, ptr %3, align 2
  store i32 1, ptr %8, align 4
  br label %104

104:                                              ; preds = %99, %97, %70, %27
  call void @llvm.lifetime.end.p0(i64 4, ptr %7) #2
  call void @llvm.lifetime.end.p0(i64 2, ptr %6) #2
  %105 = load i16, ptr %3, align 2
  ret i16 %105
}